target datalayout = "e-m:e-p270:32:32-p271:32:32-p272:64:64-i64:64-i128:128-f80:128-n8:16:32:64-S128"
target triple = "x86_64-pc-linux-gnu"

; Function Attrs: mustprogress uwtable
define noundef i32 @_ZN3zmq14tune_tcp_maxrtEii(i32 noundef %0, i32 noundef %1) #0 {
  %3 = alloca i32, align 4
  %4 = alloca i32, align 4
  %5 = alloca i32, align 4
  %6 = alloca i32, align 4
  store i32 %0, ptr %4, align 4, !tbaa !3
  store i32 %1, ptr %5, align 4, !tbaa !3
  %7 = load i32, ptr %5, align 4, !tbaa !3
  %8 = icmp sle i32 %7, 0
  br i1 %8, label %9, label %10

9:                                                ; preds = %2
  store i32 0, ptr %3, align 4
  br label %16

10:                                               ; preds = %2
  call void @llvm.lifetime.start.p0(i64 4, ptr %6) #7
  %11 = load i32, ptr %4, align 4, !tbaa !3
  %12 = call i32 @setsockopt(i32 noundef %11, i32 noundef 6, i32 noundef 18, ptr noundef %5, i32 noundef 4) #7
  store i32 %12, ptr %6, align 4, !tbaa !3
  %13 = load i32, ptr %4, align 4, !tbaa !3
  %14 = load i32, ptr %6, align 4, !tbaa !3
  call void @_ZN3zmq29assert_success_or_recoverableEii(i32 noundef %13, i32 noundef %14)
  %15 = load i32, ptr %6, align 4, !tbaa !3
  store i32 %15, ptr %3, align 4
  call void @llvm.lifetime.end.p0(i64 4, ptr %6) #7
  br label %16

16:                                               ; preds = %10, %9
  %17 = load i32, ptr %3, align 4
  ret i32 %17
}