; Function Attrs: mustprogress uwtable
define noundef i32 @_ZN3zmq14tune_tcp_maxrtEii(i32 noundef %0, i32 noundef %1) local_unnamed_addr #0 {
  %3 = alloca i32, align 4
  store i32 %1, ptr %3, align 4, !tbaa !3
  %4 = icmp slt i32 %1, 1
  br i1 %4, label %7, label %5

5:                                                ; preds = %2
  %6 = call i32 @setsockopt(i32 noundef %0, i32 noundef 6, i32 noundef 18, ptr noundef nonnull %3, i32 noundef 4) #7
  call void @_ZN3zmq29assert_success_or_recoverableEii(i32 noundef %0, i32 noundef %6)
  br label %7

7:                                                ; preds = %2, %5
  %.0 = phi i32 [ %6, %5 ], [ 0, %2 ]
  ret i32 %.0
}